target datalayout = "e-m:e-p270:32:32-p271:32:32-p272:64:64-i64:64-i128:128-f80:128-n8:16:32:64-S128"
target triple = "x86_64-pc-linux-gnu"

%"struct.llvm::RegisterTargetMachine" = type { i8 }
%"struct.llvm::RegisterTargetMachine.38" = type { i8 }
%"class.llvm::Target" = type { ptr, ptr, ptr, ptr, ptr, i8, ptr, ptr, ptr, ptr, ptr, ptr, ptr, ptr, ptr, ptr, ptr, ptr, ptr, ptr, ptr, ptr, ptr, ptr, ptr, ptr, ptr, ptr, ptr, ptr, ptr }

; Function Attrs: mustprogress nounwind uwtable
define linkonce_odr hidden void @_ZN4llvm14TargetRegistry21RegisterTargetMachineERNS_6TargetEPFPNS_13TargetMachineERKS1_RKNS_6TripleENS_9StringRefESA_RKNS_13TargetOptionsESt8optionalINS_5Reloc5ModelEESE_INS_9CodeModel5ModelEENS_15CodeGenOptLevelEbE(ptr noundef nonnull align 8 dereferenceable(248) %0, ptr noundef %1) #1 comdat align 2 {
  %3 = alloca ptr, align 8
  %4 = alloca ptr, align 8
  store ptr %0, ptr %3, align 8
  store ptr %1, ptr %4, align 8
  %5 = load ptr, ptr %4, align 8
  %6 = load ptr, ptr %3, align 8
  %7 = getelementptr inbounds nuw %"class.llvm::Target", ptr %6, i32 0, i32 12
  store ptr %5, ptr %7, align 8
  ret void
}

; Function Attrs: mustprogress nounwind uwtable
define linkonce_odr hidden void @_ZN4llvm21RegisterTargetMachineINS_22AArch64beTargetMachineEEC2ERNS_6TargetE(ptr noundef nonnull align 1 dereferenceable(1) %0, ptr noundef nonnull align 8 dereferenceable(248) %1) unnamed_addr #1 comdat align 2 {
  %3 = alloca ptr, align 8
  %4 = alloca ptr, align 8
  store ptr %0, ptr %3, align 8
  store ptr %1, ptr %4, align 8
  %5 = load ptr, ptr %4, align 8
  call void @_ZN4llvm14TargetRegistry21RegisterTargetMachineERNS_6TargetEPFPNS_13TargetMachineERKS1_RKNS_6TripleENS_9StringRefESA_RKNS_13TargetOptionsESt8optionalINS_5Reloc5ModelEESE_INS_9CodeModel5ModelEENS_15CodeGenOptLevelEbE(ptr noundef nonnull align 8 dereferenceable(248) %5, ptr noundef @_ZN4llvm21RegisterTargetMachineINS_22AArch64beTargetMachineEE9AllocatorERKNS_6TargetERKNS_6TripleENS_9StringRefES9_RKNS_13TargetOptionsESt8optionalINS_5Reloc5ModelEESD_INS_9CodeModel5ModelEENS_15CodeGenOptLevelEb)
  ret void
}

; Function Attrs: mustprogress nounwind uwtable
define linkonce_odr hidden void @_ZN4llvm21RegisterTargetMachineINS_22AArch64leTargetMachineEEC2ERNS_6TargetE(ptr noundef nonnull align 1 dereferenceable(1) %0, ptr noundef nonnull align 8 dereferenceable(248) %1) unnamed_addr #1 comdat align 2 {
  %3 = alloca ptr, align 8
  %4 = alloca ptr, align 8
  store ptr %0, ptr %3, align 8
  store ptr %1, ptr %4, align 8
  %5 = load ptr, ptr %4, align 8
  call void @_ZN4llvm14TargetRegistry21RegisterTargetMachineERNS_6TargetEPFPNS_13TargetMachineERKS1_RKNS_6TripleENS_9StringRefESA_RKNS_13TargetOptionsESt8optionalINS_5Reloc5ModelEESE_INS_9CodeModel5ModelEENS_15CodeGenOptLevelEbE(ptr noundef nonnull align 8 dereferenceable(248) %5, ptr noundef @_ZN4llvm21RegisterTargetMachineINS_22AArch64leTargetMachineEE9AllocatorERKNS_6TargetERKNS_6TripleENS_9StringRefES9_RKNS_13TargetOptionsESt8optionalINS_5Reloc5ModelEESD_INS_9CodeModel5ModelEENS_15CodeGenOptLevelEb)
  ret void
}

; Function Attrs: mustprogress nounwind uwtable
define dso_local void @LLVMInitializeAArch64Target() #1 {
  %1 = alloca %"struct.llvm::RegisterTargetMachine", align 1
  %2 = alloca %"struct.llvm::RegisterTargetMachine.38", align 1
  %3 = alloca %"struct.llvm::RegisterTargetMachine", align 1
  %4 = alloca %"struct.llvm::RegisterTargetMachine", align 1
  %5 = alloca %"struct.llvm::RegisterTargetMachine", align 1
  %6 = alloca ptr, align 8
  %7 = call noundef nonnull align 8 dereferenceable(248) ptr @_ZN4llvm21getTheAArch64leTargetEv()
  call void @_ZN4llvm21RegisterTargetMachineINS_22AArch64leTargetMachineEEC2ERNS_6TargetE(ptr noundef nonnull align 1 dereferenceable(1) %1, ptr noundef nonnull align 8 dereferenceable(248) %7)
  %8 = call noundef nonnull align 8 dereferenceable(248) ptr @_ZN4llvm21getTheAArch64beTargetEv()
  call void @_ZN4llvm21RegisterTargetMachineINS_22AArch64beTargetMachineEEC2ERNS_6TargetE(ptr noundef nonnull align 1 dereferenceable(1) %2, ptr noundef nonnull align 8 dereferenceable(248) %8)
  %9 = call noundef nonnull align 8 dereferenceable(248) ptr @_ZN4llvm17getTheARM64TargetEv()
  call void @_ZN4llvm21RegisterTargetMachineINS_22AArch64leTargetMachineEEC2ERNS_6TargetE(ptr noundef nonnull align 1 dereferenceable(1) %3, ptr noundef nonnull align 8 dereferenceable(248) %9)
  %10 = call noundef nonnull align 8 dereferenceable(248) ptr @_ZN4llvm20getTheARM64_32TargetEv()
  call void @_ZN4llvm21RegisterTargetMachineINS_22AArch64leTargetMachineEEC2ERNS_6TargetE(ptr noundef nonnull align 1 dereferenceable(1) %4, ptr noundef nonnull align 8 dereferenceable(248) %10)
  %11 = call noundef nonnull align 8 dereferenceable(248) ptr @_ZN4llvm22getTheAArch64_32TargetEv()
  call void @_ZN4llvm21RegisterTargetMachineINS_22AArch64leTargetMachineEEC2ERNS_6TargetE(ptr noundef nonnull align 1 dereferenceable(1) %5, ptr noundef nonnull align 8 dereferenceable(248) %11)
  %12 = call noundef ptr @_ZN4llvm12PassRegistry15getPassRegistryEv()
  store ptr %12, ptr %6, align 8
  %13 = load ptr, ptr %6, align 8
  call void @_ZN4llvm20initializeGlobalISelERNS_12PassRegistryE(ptr noundef nonnull align 8 dereferenceable(160) %13)
  %14 = load ptr, ptr %6, align 8
  call void @_ZN4llvm33initializeAArch64A53Fix835769PassERNS_12PassRegistryE(ptr noundef nonnull align 8 dereferenceable(160) %14)
  %15 = load ptr, ptr %6, align 8
  call void @_ZN4llvm39initializeAArch64A57FPLoadBalancingPassERNS_12PassRegistryE(ptr noundef nonnull align 8 dereferenceable(160) %15)
  %16 = load ptr, ptr %6, align 8
  call void @_ZN4llvm34initializeAArch64AdvSIMDScalarPassERNS_12PassRegistryE(ptr noundef nonnull align 8 dereferenceable(160) %16)
  %17 = load ptr, ptr %6, align 8
  call void @_ZN4llvm34initializeAArch64BranchTargetsPassERNS_12PassRegistryE(ptr noundef nonnull align 8 dereferenceable(160) %17)
  %18 = load ptr, ptr %6, align 8
  call void @_ZN4llvm31initializeAArch64CollectLOHPassERNS_12PassRegistryE(ptr noundef nonnull align 8 dereferenceable(160) %18)
  %19 = load ptr, ptr %6, align 8
  call void @_ZN4llvm39initializeAArch64CompressJumpTablesPassERNS_12PassRegistryE(ptr noundef nonnull align 8 dereferenceable(160) %19)
  %20 = load ptr, ptr %6, align 8
  call void @_ZN4llvm40initializeAArch64ConditionalComparesPassERNS_12PassRegistryE(ptr noundef nonnull align 8 dereferenceable(160) %20)
  %21 = load ptr, ptr %6, align 8
  call void @_ZN4llvm39initializeAArch64ConditionOptimizerPassERNS_12PassRegistryE(ptr noundef nonnull align 8 dereferenceable(160) %21)
  %22 = load ptr, ptr %6, align 8
  call void @_ZN4llvm44initializeAArch64DeadRegisterDefinitionsPassERNS_12PassRegistryE(ptr noundef nonnull align 8 dereferenceable(160) %22)
  %23 = load ptr, ptr %6, align 8
  call void @_ZN4llvm33initializeAArch64ExpandPseudoPassERNS_12PassRegistryE(ptr noundef nonnull align 8 dereferenceable(160) %23)
  %24 = load ptr, ptr %6, align 8
  call void @_ZN4llvm33initializeAArch64LoadStoreOptPassERNS_12PassRegistryE(ptr noundef nonnull align 8 dereferenceable(160) %24)
  %25 = load ptr, ptr %6, align 8
  call void @_ZN4llvm34initializeAArch64MIPeepholeOptPassERNS_12PassRegistryE(ptr noundef nonnull align 8 dereferenceable(160) %25)
  %26 = load ptr, ptr %6, align 8
  call void @_ZN4llvm33initializeAArch64SIMDInstrOptPassERNS_12PassRegistryE(ptr noundef nonnull align 8 dereferenceable(160) %26)
  %27 = load ptr, ptr %6, align 8
  call void @_ZN4llvm43initializeAArch64O0PreLegalizerCombinerPassERNS_12PassRegistryE(ptr noundef nonnull align 8 dereferenceable(160) %27)
  %28 = load ptr, ptr %6, align 8
  call void @_ZN4llvm41initializeAArch64PreLegalizerCombinerPassERNS_12PassRegistryE(ptr noundef nonnull align 8 dereferenceable(160) %28)
  %29 = load ptr, ptr %6, align 8
  call void @_ZN4llvm32initializeAArch64PointerAuthPassERNS_12PassRegistryE(ptr noundef nonnull align 8 dereferenceable(160) %29)
  %30 = load ptr, ptr %6, align 8
  call void @_ZN4llvm34initializeAArch64PostCoalescerPassERNS_12PassRegistryE(ptr noundef nonnull align 8 dereferenceable(160) %30)
  %31 = load ptr, ptr %6, align 8
  call void @_ZN4llvm42initializeAArch64PostLegalizerCombinerPassERNS_12PassRegistryE(ptr noundef nonnull align 8 dereferenceable(160) %31)
  %32 = load ptr, ptr %6, align 8
  call void @_ZN4llvm42initializeAArch64PostLegalizerLoweringPassERNS_12PassRegistryE(ptr noundef nonnull align 8 dereferenceable(160) %32)
  %33 = load ptr, ptr %6, align 8
  call void @_ZN4llvm39initializeAArch64PostSelectOptimizePassERNS_12PassRegistryE(ptr noundef nonnull align 8 dereferenceable(160) %33)
  %34 = load ptr, ptr %6, align 8
  call void @_ZN4llvm36initializeAArch64PromoteConstantPassERNS_12PassRegistryE(ptr noundef nonnull align 8 dereferenceable(160) %34)
  %35 = load ptr, ptr %6, align 8
  call void @_ZN4llvm45initializeAArch64RedundantCopyEliminationPassERNS_12PassRegistryE(ptr noundef nonnull align 8 dereferenceable(160) %35)
  %36 = load ptr, ptr %6, align 8
  call void @_ZN4llvm38initializeAArch64StorePairSuppressPassERNS_12PassRegistryE(ptr noundef nonnull align 8 dereferenceable(160) %36)
  %37 = load ptr, ptr %6, align 8
  call void @_ZN4llvm27initializeFalkorHWPFFixPassERNS_12PassRegistryE(ptr noundef nonnull align 8 dereferenceable(160) %37)
  %38 = load ptr, ptr %6, align 8
  call void @_ZN4llvm45initializeFalkorMarkStridedAccessesLegacyPassERNS_12PassRegistryE(ptr noundef nonnull align 8 dereferenceable(160) %38)
  %39 = load ptr, ptr %6, align 8
  call void @_ZN4llvm26initializeLDTLSCleanupPassERNS_12PassRegistryE(ptr noundef nonnull align 8 dereferenceable(160) %39)
  %40 = load ptr, ptr %6, align 8
  call void @_ZN4llvm18initializeKCFIPassERNS_12PassRegistryE(ptr noundef nonnull align 8 dereferenceable(160) %40)
  %41 = load ptr, ptr %6, align 8
  call void @_ZN4llvm20initializeSMEABIPassERNS_12PassRegistryE(ptr noundef nonnull align 8 dereferenceable(160) %41)
  %42 = load ptr, ptr %6, align 8
  call void @_ZN4llvm28initializeSMEPeepholeOptPassERNS_12PassRegistryE(ptr noundef nonnull align 8 dereferenceable(160) %42)
  %43 = load ptr, ptr %6, align 8
  call void @_ZN4llvm30initializeSVEIntrinsicOptsPassERNS_12PassRegistryE(ptr noundef nonnull align 8 dereferenceable(160) %43)
  %44 = load ptr, ptr %6, align 8
  call void @_ZN4llvm41initializeAArch64SpeculationHardeningPassERNS_12PassRegistryE(ptr noundef nonnull align 8 dereferenceable(160) %44)
  %45 = load ptr, ptr %6, align 8
  call void @_ZN4llvm33initializeAArch64SLSHardeningPassERNS_12PassRegistryE(ptr noundef nonnull align 8 dereferenceable(160) %45)
  %46 = load ptr, ptr %6, align 8
  call void @_ZN4llvm33initializeAArch64StackTaggingPassERNS_12PassRegistryE(ptr noundef nonnull align 8 dereferenceable(160) %46)
  %47 = load ptr, ptr %6, align 8
  call void @_ZN4llvm38initializeAArch64StackTaggingPreRAPassERNS_12PassRegistryE(ptr noundef nonnull align 8 dereferenceable(160) %47)
  %48 = load ptr, ptr %6, align 8
  call void @_ZN4llvm49initializeAArch64LowerHomogeneousPrologEpilogPassERNS_12PassRegistryE(ptr noundef nonnull align 8 dereferenceable(160) %48)
  %49 = load ptr, ptr %6, align 8
  call void @_ZN4llvm39initializeAArch64DAGToDAGISelLegacyPassERNS_12PassRegistryE(ptr noundef nonnull align 8 dereferenceable(160) %49)
  %50 = load ptr, ptr %6, align 8
  call void @_ZN4llvm35initializeAArch64GlobalsTaggingPassERNS_12PassRegistryE(ptr noundef nonnull align 8 dereferenceable(160) %50)
  ret void
}