; Function Attrs: mustprogress nounwind uwtable
define dso_local void @LLVMInitializeAArch64Target() local_unnamed_addr #0 {
  %1 = tail call noundef nonnull align 8 dereferenceable(248) ptr @_ZN4llvm21getTheAArch64leTargetEv() #21
  %2 = getelementptr inbounds nuw i8, ptr %1, i64 96
  store ptr @_ZN4llvm21RegisterTargetMachineINS_22AArch64leTargetMachineEE9AllocatorERKNS_6TargetERKNS_6TripleENS_9StringRefES9_RKNS_13TargetOptionsESt8optionalINS_5Reloc5ModelEESD_INS_9CodeModel5ModelEENS_15CodeGenOptLevelEb, ptr %2, align 8
  %3 = tail call noundef nonnull align 8 dereferenceable(248) ptr @_ZN4llvm21getTheAArch64beTargetEv() #21
  %4 = getelementptr inbounds nuw i8, ptr %3, i64 96
  store ptr @_ZN4llvm21RegisterTargetMachineINS_22AArch64beTargetMachineEE9AllocatorERKNS_6TargetERKNS_6TripleENS_9StringRefES9_RKNS_13TargetOptionsESt8optionalINS_5Reloc5ModelEESD_INS_9CodeModel5ModelEENS_15CodeGenOptLevelEb, ptr %4, align 8
  %5 = tail call noundef nonnull align 8 dereferenceable(248) ptr @_ZN4llvm17getTheARM64TargetEv() #21
  %6 = getelementptr inbounds nuw i8, ptr %5, i64 96
  store ptr @_ZN4llvm21RegisterTargetMachineINS_22AArch64leTargetMachineEE9AllocatorERKNS_6TargetERKNS_6TripleENS_9StringRefES9_RKNS_13TargetOptionsESt8optionalINS_5Reloc5ModelEESD_INS_9CodeModel5ModelEENS_15CodeGenOptLevelEb, ptr %6, align 8
  %7 = tail call noundef nonnull align 8 dereferenceable(248) ptr @_ZN4llvm20getTheARM64_32TargetEv() #21
  %8 = getelementptr inbounds nuw i8, ptr %7, i64 96
  store ptr @_ZN4llvm21RegisterTargetMachineINS_22AArch64leTargetMachineEE9AllocatorERKNS_6TargetERKNS_6TripleENS_9StringRefES9_RKNS_13TargetOptionsESt8optionalINS_5Reloc5ModelEESD_INS_9CodeModel5ModelEENS_15CodeGenOptLevelEb, ptr %8, align 8
  %9 = tail call noundef nonnull align 8 dereferenceable(248) ptr @_ZN4llvm22getTheAArch64_32TargetEv() #21
  %10 = getelementptr inbounds nuw i8, ptr %9, i64 96
  store ptr @_ZN4llvm21RegisterTargetMachineINS_22AArch64leTargetMachineEE9AllocatorERKNS_6TargetERKNS_6TripleENS_9StringRefES9_RKNS_13TargetOptionsESt8optionalINS_5Reloc5ModelEESD_INS_9CodeModel5ModelEENS_15CodeGenOptLevelEb, ptr %10, align 8
  %11 = tail call noundef ptr @_ZN4llvm12PassRegistry15getPassRegistryEv() #21
  tail call void @_ZN4llvm20initializeGlobalISelERNS_12PassRegistryE(ptr noundef nonnull align 8 dereferenceable(160) %11) #21
  tail call void @_ZN4llvm33initializeAArch64A53Fix835769PassERNS_12PassRegistryE(ptr noundef nonnull align 8 dereferenceable(160) %11) #21
  tail call void @_ZN4llvm39initializeAArch64A57FPLoadBalancingPassERNS_12PassRegistryE(ptr noundef nonnull align 8 dereferenceable(160) %11) #21
  tail call void @_ZN4llvm34initializeAArch64AdvSIMDScalarPassERNS_12PassRegistryE(ptr noundef nonnull align 8 dereferenceable(160) %11) #21
  tail call void @_ZN4llvm34initializeAArch64BranchTargetsPassERNS_12PassRegistryE(ptr noundef nonnull align 8 dereferenceable(160) %11) #21
  tail call void @_ZN4llvm31initializeAArch64CollectLOHPassERNS_12PassRegistryE(ptr noundef nonnull align 8 dereferenceable(160) %11) #21
  tail call void @_ZN4llvm39initializeAArch64CompressJumpTablesPassERNS_12PassRegistryE(ptr noundef nonnull align 8 dereferenceable(160) %11) #21
  tail call void @_ZN4llvm40initializeAArch64ConditionalComparesPassERNS_12PassRegistryE(ptr noundef nonnull align 8 dereferenceable(160) %11) #21
  tail call void @_ZN4llvm39initializeAArch64ConditionOptimizerPassERNS_12PassRegistryE(ptr noundef nonnull align 8 dereferenceable(160) %11) #21
  tail call void @_ZN4llvm44initializeAArch64DeadRegisterDefinitionsPassERNS_12PassRegistryE(ptr noundef nonnull align 8 dereferenceable(160) %11) #21
  tail call void @_ZN4llvm33initializeAArch64ExpandPseudoPassERNS_12PassRegistryE(ptr noundef nonnull align 8 dereferenceable(160) %11) #21
  tail call void @_ZN4llvm33initializeAArch64LoadStoreOptPassERNS_12PassRegistryE(ptr noundef nonnull align 8 dereferenceable(160) %11) #21
  tail call void @_ZN4llvm34initializeAArch64MIPeepholeOptPassERNS_12PassRegistryE(ptr noundef nonnull align 8 dereferenceable(160) %11) #21
  tail call void @_ZN4llvm33initializeAArch64SIMDInstrOptPassERNS_12PassRegistryE(ptr noundef nonnull align 8 dereferenceable(160) %11) #21
  tail call void @_ZN4llvm43initializeAArch64O0PreLegalizerCombinerPassERNS_12PassRegistryE(ptr noundef nonnull align 8 dereferenceable(160) %11) #21
  tail call void @_ZN4llvm41initializeAArch64PreLegalizerCombinerPassERNS_12PassRegistryE(ptr noundef nonnull align 8 dereferenceable(160) %11) #21
  tail call void @_ZN4llvm32initializeAArch64PointerAuthPassERNS_12PassRegistryE(ptr noundef nonnull align 8 dereferenceable(160) %11) #21
  tail call void @_ZN4llvm34initializeAArch64PostCoalescerPassERNS_12PassRegistryE(ptr noundef nonnull align 8 dereferenceable(160) %11) #21
  tail call void @_ZN4llvm42initializeAArch64PostLegalizerCombinerPassERNS_12PassRegistryE(ptr noundef nonnull align 8 dereferenceable(160) %11) #21
  tail call void @_ZN4llvm42initializeAArch64PostLegalizerLoweringPassERNS_12PassRegistryE(ptr noundef nonnull align 8 dereferenceable(160) %11) #21
  tail call void @_ZN4llvm39initializeAArch64PostSelectOptimizePassERNS_12PassRegistryE(ptr noundef nonnull align 8 dereferenceable(160) %11) #21
  tail call void @_ZN4llvm36initializeAArch64PromoteConstantPassERNS_12PassRegistryE(ptr noundef nonnull align 8 dereferenceable(160) %11) #21
  tail call void @_ZN4llvm45initializeAArch64RedundantCopyEliminationPassERNS_12PassRegistryE(ptr noundef nonnull align 8 dereferenceable(160) %11) #21
  tail call void @_ZN4llvm38initializeAArch64StorePairSuppressPassERNS_12PassRegistryE(ptr noundef nonnull align 8 dereferenceable(160) %11) #21
  tail call void @_ZN4llvm27initializeFalkorHWPFFixPassERNS_12PassRegistryE(ptr noundef nonnull align 8 dereferenceable(160) %11) #21
  tail call void @_ZN4llvm45initializeFalkorMarkStridedAccessesLegacyPassERNS_12PassRegistryE(ptr noundef nonnull align 8 dereferenceable(160) %11) #21
  tail call void @_ZN4llvm26initializeLDTLSCleanupPassERNS_12PassRegistryE(ptr noundef nonnull align 8 dereferenceable(160) %11) #21
  tail call void @_ZN4llvm18initializeKCFIPassERNS_12PassRegistryE(ptr noundef nonnull align 8 dereferenceable(160) %11) #21
  tail call void @_ZN4llvm20initializeSMEABIPassERNS_12PassRegistryE(ptr noundef nonnull align 8 dereferenceable(160) %11) #21
  tail call void @_ZN4llvm28initializeSMEPeepholeOptPassERNS_12PassRegistryE(ptr noundef nonnull align 8 dereferenceable(160) %11) #21
  tail call void @_ZN4llvm30initializeSVEIntrinsicOptsPassERNS_12PassRegistryE(ptr noundef nonnull align 8 dereferenceable(160) %11) #21
  tail call void @_ZN4llvm41initializeAArch64SpeculationHardeningPassERNS_12PassRegistryE(ptr noundef nonnull align 8 dereferenceable(160) %11) #21
  tail call void @_ZN4llvm33initializeAArch64SLSHardeningPassERNS_12PassRegistryE(ptr noundef nonnull align 8 dereferenceable(160) %11) #21
  tail call void @_ZN4llvm33initializeAArch64StackTaggingPassERNS_12PassRegistryE(ptr noundef nonnull align 8 dereferenceable(160) %11) #21
  tail call void @_ZN4llvm38initializeAArch64StackTaggingPreRAPassERNS_12PassRegistryE(ptr noundef nonnull align 8 dereferenceable(160) %11) #21
  tail call void @_ZN4llvm49initializeAArch64LowerHomogeneousPrologEpilogPassERNS_12PassRegistryE(ptr noundef nonnull align 8 dereferenceable(160) %11) #21
  tail call void @_ZN4llvm39initializeAArch64DAGToDAGISelLegacyPassERNS_12PassRegistryE(ptr noundef nonnull align 8 dereferenceable(160) %11) #21
  tail call void @_ZN4llvm35initializeAArch64GlobalsTaggingPassERNS_12PassRegistryE(ptr noundef nonnull align 8 dereferenceable(160) %11) #21
  ret void
}